; Function Attrs: nofree norecurse nosync nounwind memory(argmem: readwrite) uwtable
define hidden range(i32 -92, 1) i32 @mbedtls_aria_crypt_ctr(ptr noundef readonly captures(none) %0, i64 noundef %1, ptr noundef captures(none) %2, ptr noundef captures(none) %3, ptr noundef captures(none) %4, ptr noundef readonly captures(none) %5, ptr noundef writeonly captures(none) %6) local_unnamed_addr #6 {
  %8 = load i64, ptr %2, align 8, !tbaa !18
  %9 = icmp ugt i64 %8, 15
  br i1 %9, label %29, label %.preheader

.preheader:                                       ; preds = %7
  %.not27 = icmp eq i64 %1, 0
  br i1 %.not27, label %._crit_edge, label %.lr.ph

.lr.ph:                                           ; preds = %.preheader
  %invariant.gep = getelementptr i8, ptr %3, i64 -1
  br label %10

10:                                               ; preds = %.lr.ph, %.loopexit
  %.in = phi i64 [ %1, %.lr.ph ], [ %11, %.loopexit ]
  %.030 = phi i64 [ %8, %.lr.ph ], [ %28, %.loopexit ]
  %.02129 = phi ptr [ %6, %.lr.ph ], [ %26, %.loopexit ]
  %.02228 = phi ptr [ %5, %.lr.ph ], [ %21, %.loopexit ]
  %11 = add i64 %.in, -1
  %12 = icmp eq i64 %.030, 0
  br i1 %12, label %13, label %.loopexit

13:                                               ; preds = %10
  %14 = tail call i32 @mbedtls_aria_crypt_ecb(ptr noundef %0, ptr noundef %3, ptr noundef %4)
  br label %15

15:                                               ; preds = %15, %13
  %.01926 = phi i32 [ 16, %13 ], [ %19, %15 ]
  %16 = zext nneg i32 %.01926 to i64
  %gep = getelementptr i8, ptr %invariant.gep, i64 %16
  %17 = load i8, ptr %gep, align 1, !tbaa !9
  %18 = add i8 %17, 1
  store i8 %18, ptr %gep, align 1, !tbaa !9
  %.not25 = icmp eq i8 %18, 0
  %19 = add nsw i32 %.01926, -1
  %20 = icmp ugt i32 %.01926, 1
  %or.cond = and i1 %.not25, %20
  br i1 %or.cond, label %15, label %.loopexit, !llvm.loop !22

.loopexit:                                        ; preds = %15, %10
  %21 = getelementptr inbounds nuw i8, ptr %.02228, i64 1
  %22 = load i8, ptr %.02228, align 1, !tbaa !9
  %23 = getelementptr inbounds nuw i8, ptr %4, i64 %.030
  %24 = load i8, ptr %23, align 1, !tbaa !9
  %25 = xor i8 %24, %22
  %26 = getelementptr inbounds nuw i8, ptr %.02129, i64 1
  store i8 %25, ptr %.02129, align 1, !tbaa !9
  %27 = add nuw nsw i64 %.030, 1
  %28 = and i64 %27, 15
  %.not = icmp eq i64 %11, 0
  br i1 %.not, label %._crit_edge, label %10, !llvm.loop !23

._crit_edge:                                      ; preds = %.loopexit, %.preheader
  %.0.lcssa = phi i64 [ %8, %.preheader ], [ %28, %.loopexit ]
  store i64 %.0.lcssa, ptr %2, align 8, !tbaa !18
  br label %29

29:                                               ; preds = %7, %._crit_edge
  %.020 = phi i32 [ 0, %._crit_edge ], [ -92, %7 ]
  ret i32 %.020
}